target datalayout = "e-m:e-p270:32:32-p271:32:32-p272:64:64-i64:64-i128:128-f80:128-n8:16:32:64-S128"
target triple = "x86_64-pc-linux-gnu"

%struct.coap_common_dissect = type { %struct.anon, %struct.anon.0, %struct.anon.1 }
%struct.anon = type { i32, i32, i32, i32, i32, i32, i32, i32, i32, i32, i32, i32, i32, i32, i32, i32, i32, i32, i32, i32, i32, i32, i32, i32, i32, i32, i32, i32, i32, i32, i32, i32, i32, i32, i32, i32, i32, i32, i32, i32, i32, i32, i32, i32, i32, i32 }
%struct.anon.0 = type { i32, i32 }
%struct.anon.1 = type { %struct.expert_field, %struct.expert_field, %struct.expert_field, %struct.expert_field, %struct.expert_field }
%struct.expert_field = type { i32, i32 }
%struct.coap_info = type { ptr, i32, i32, i32, i32, ptr, ptr, i8, i8, ptr }
%struct.media_content_info_t = type { i32, ptr, ptr, ptr }
%struct._proto_node = type { ptr, ptr, ptr, ptr, ptr, ptr, ptr }
%struct.field_info = type { ptr, i32, i32, i32, i32, i32, i32, ptr, ptr, ptr, i32, i32 }

@.str.3 = private unnamed_addr constant [26 x i8] c"text/plain; charset=utf-8\00", align 1
@.str.4 = private unnamed_addr constant [11 x i8] c"text/plain\00", align 1
@.str.5 = private unnamed_addr constant [25 x i8] c"application/octet-stream\00", align 1
@.str.6 = private unnamed_addr constant [41 x i8] c"Payload Content-Format: %s%s, Length: %u\00", align 1
@.str.7 = private unnamed_addr constant [21 x i8] c" (no Content-Format)\00", align 1
@.str.8 = private unnamed_addr constant [1 x i8] zeroinitializer, align 1
@coap_tmf_media_type_dissector_table = internal global ptr null, align 8
@media_type_dissector_table = internal global ptr null, align 8
@.str.9 = private unnamed_addr constant [22 x i8] c"Encrypted OSCORE Data\00", align 1
@oscore_handle = internal global ptr null, align 8

; Function Attrs: inlinehint nounwind null_pointer_is_valid sspstrong uwtable
define internal void @proto_item_set_generated(ptr noundef %0) #4 {
  %2 = alloca ptr, align 8
  store ptr %0, ptr %2, align 8
  %3 = load ptr, ptr %2, align 8
  %4 = icmp ne ptr %3, null
  br i1 %4, label %5, label %24

5:                                                ; preds = %1
  br label %6

6:                                                ; preds = %5
  %7 = load ptr, ptr %2, align 8
  %8 = getelementptr inbounds nuw %struct._proto_node, ptr %7, i32 0, i32 5
  %9 = load ptr, ptr %8, align 8
  %10 = icmp ne ptr %9, null
  br i1 %10, label %11, label %22

11:                                               ; preds = %6
  %12 = load ptr, ptr %2, align 8
  %13 = getelementptr inbounds nuw %struct._proto_node, ptr %12, i32 0, i32 5
  %14 = load ptr, ptr %13, align 8
  %15 = getelementptr inbounds nuw %struct.field_info, ptr %14, i32 0, i32 6
  %16 = load i32, ptr %15, align 4
  %17 = or i32 %16, 2
  %18 = load ptr, ptr %2, align 8
  %19 = getelementptr inbounds nuw %struct._proto_node, ptr %18, i32 0, i32 5
  %20 = load ptr, ptr %19, align 8
  %21 = getelementptr inbounds nuw %struct.field_info, ptr %20, i32 0, i32 6
  store i32 %17, ptr %21, align 4
  br label %22

22:                                               ; preds = %11, %6
  br label %23

23:                                               ; preds = %22
  br label %24

24:                                               ; preds = %23, %1
  ret void
}

; Function Attrs: null_pointer_is_valid sspstrong uwtable
define hidden void @dissect_coap_payload(ptr noundef %0, ptr noundef %1, ptr noundef %2, ptr noundef %3, i32 noundef %4, i32 noundef %5, i8 noundef zeroext %6, ptr noundef %7, ptr noundef %8, i1 noundef zeroext %9) #1 {
  %11 = alloca ptr, align 8
  %12 = alloca ptr, align 8
  %13 = alloca ptr, align 8
  %14 = alloca ptr, align 8
  %15 = alloca i32, align 4
  %16 = alloca i32, align 4
  %17 = alloca i8, align 1
  %18 = alloca ptr, align 8
  %19 = alloca ptr, align 8
  %20 = alloca i8, align 1
  %21 = alloca ptr, align 8
  %22 = alloca ptr, align 8
  %23 = alloca ptr, align 8
  %24 = alloca ptr, align 8
  %25 = alloca i32, align 4
  %26 = alloca ptr, align 8
  %27 = alloca %struct.media_content_info_t, align 8
  %28 = alloca [80 x i8], align 16
  %29 = alloca i32, align 4
  store ptr %0, ptr %11, align 8
  store ptr %1, ptr %12, align 8
  store ptr %2, ptr %13, align 8
  store ptr %3, ptr %14, align 8
  store i32 %4, ptr %15, align 4
  store i32 %5, ptr %16, align 4
  store i8 %6, ptr %17, align 1
  store ptr %7, ptr %18, align 8
  store ptr %8, ptr %19, align 8
  %30 = zext i1 %9 to i8
  store i8 %30, ptr %20, align 1
  call void @llvm.lifetime.start.p0(i64 8, ptr %21) #11
  call void @llvm.lifetime.start.p0(i64 8, ptr %22) #11
  call void @llvm.lifetime.start.p0(i64 8, ptr %23) #11
  call void @llvm.lifetime.start.p0(i64 8, ptr %24) #11
  call void @llvm.lifetime.start.p0(i64 4, ptr %25) #11
  %31 = load i32, ptr %16, align 4
  %32 = load i32, ptr %15, align 4
  %33 = sub i32 %31, %32
  store i32 %33, ptr %25, align 4
  call void @llvm.lifetime.start.p0(i64 8, ptr %26) #11
  call void @llvm.lifetime.start.p0(i64 32, ptr %27) #11
  call void @llvm.memset.p0.i64(ptr align 8 %27, i8 0, i64 32, i1 false)
  call void @llvm.lifetime.start.p0(i64 80, ptr %28) #11
  call void @llvm.lifetime.start.p0(i64 4, ptr %29) #11
  store i32 0, ptr %29, align 4
  %34 = load ptr, ptr %18, align 8
  %35 = getelementptr inbounds nuw %struct.coap_info, ptr %34, i32 0, i32 1
  %36 = load i32, ptr %35, align 8
  %37 = icmp eq i32 %36, -1
  br i1 %37, label %38, label %56

38:                                               ; preds = %10
  %39 = load i8, ptr %17, align 1
  %40 = zext i8 %39 to i32
  %41 = icmp sge i32 %40, 4
  br i1 %41, label %42, label %49

42:                                               ; preds = %38
  %43 = load i8, ptr %17, align 1
  %44 = zext i8 %43 to i32
  %45 = icmp sle i32 %44, 5
  br i1 %45, label %46, label %49

46:                                               ; preds = %42
  %47 = load ptr, ptr %18, align 8
  %48 = getelementptr inbounds nuw %struct.coap_info, ptr %47, i32 0, i32 0
  store ptr @.str.3, ptr %48, align 8
  store ptr @.str.4, ptr %26, align 8
  br label %55

49:                                               ; preds = %42, %38
  %50 = load ptr, ptr %18, align 8
  %51 = getelementptr inbounds nuw %struct.coap_info, ptr %50, i32 0, i32 0
  store ptr @.str.5, ptr %51, align 8
  %52 = load ptr, ptr %18, align 8
  %53 = getelementptr inbounds nuw %struct.coap_info, ptr %52, i32 0, i32 0
  %54 = load ptr, ptr %53, align 8
  store ptr %54, ptr %26, align 8
  br label %55

55:                                               ; preds = %49, %46
  br label %67

56:                                               ; preds = %10
  %57 = load ptr, ptr %18, align 8
  %58 = getelementptr inbounds nuw %struct.coap_info, ptr %57, i32 0, i32 1
  %59 = load i32, ptr %58, align 8
  %60 = icmp eq i32 %59, 0
  br i1 %60, label %61, label %62

61:                                               ; preds = %56
  store ptr @.str.4, ptr %26, align 8
  br label %66

62:                                               ; preds = %56
  %63 = load ptr, ptr %18, align 8
  %64 = getelementptr inbounds nuw %struct.coap_info, ptr %63, i32 0, i32 0
  %65 = load ptr, ptr %64, align 8
  store ptr %65, ptr %26, align 8
  br label %66

66:                                               ; preds = %62, %61
  br label %67

67:                                               ; preds = %66, %55
  %68 = getelementptr inbounds [80 x i8], ptr %28, i64 0, i64 0
  %69 = load ptr, ptr %18, align 8
  %70 = getelementptr inbounds nuw %struct.coap_info, ptr %69, i32 0, i32 0
  %71 = load ptr, ptr %70, align 8
  %72 = load ptr, ptr %18, align 8
  %73 = getelementptr inbounds nuw %struct.coap_info, ptr %72, i32 0, i32 1
  %74 = load i32, ptr %73, align 8
  %75 = icmp eq i32 %74, -1
  %76 = select i1 %75, ptr @.str.7, ptr @.str.8
  %77 = load i32, ptr %25, align 4
  %78 = call i32 (ptr, i64, i32, i64, ptr, ...) @__snprintf_chk(ptr noundef %68, i64 noundef 80, i32 noundef 2, i64 noundef 80, ptr noundef @.str.6, ptr noundef %71, ptr noundef %76, i32 noundef %77)
  %79 = load ptr, ptr %13, align 8
  %80 = load ptr, ptr %19, align 8
  %81 = getelementptr inbounds nuw %struct.coap_common_dissect, ptr %80, i32 0, i32 0
  %82 = getelementptr inbounds nuw %struct.anon, ptr %81, i32 0, i32 1
  %83 = load i32, ptr %82, align 4
  %84 = load ptr, ptr %11, align 8
  %85 = load i32, ptr %15, align 4
  %86 = load i32, ptr %25, align 4
  %87 = getelementptr inbounds [80 x i8], ptr %28, i64 0, i64 0
  %88 = call ptr @proto_tree_add_string(ptr noundef %79, i32 noundef %83, ptr noundef %84, i32 noundef %85, i32 noundef %86, ptr noundef %87)
  store ptr %88, ptr %22, align 8
  %89 = load ptr, ptr %22, align 8
  %90 = load ptr, ptr %19, align 8
  %91 = getelementptr inbounds nuw %struct.coap_common_dissect, ptr %90, i32 0, i32 1
  %92 = getelementptr inbounds nuw %struct.anon.0, ptr %91, i32 0, i32 0
  %93 = load i32, ptr %92, align 4
  %94 = call ptr @proto_item_add_subtree(ptr noundef %89, i32 noundef %93)
  store ptr %94, ptr %21, align 8
  %95 = load ptr, ptr %21, align 8
  %96 = load ptr, ptr %19, align 8
  %97 = getelementptr inbounds nuw %struct.coap_common_dissect, ptr %96, i32 0, i32 0
  %98 = getelementptr inbounds nuw %struct.anon, ptr %97, i32 0, i32 2
  %99 = load i32, ptr %98, align 4
  %100 = load ptr, ptr %11, align 8
  %101 = load i32, ptr %15, align 4
  %102 = load ptr, ptr %18, align 8
  %103 = getelementptr inbounds nuw %struct.coap_info, ptr %102, i32 0, i32 0
  %104 = load ptr, ptr %103, align 8
  %105 = call ptr @proto_tree_add_string(ptr noundef %95, i32 noundef %99, ptr noundef %100, i32 noundef %101, i32 noundef 0, ptr noundef %104)
  %106 = load ptr, ptr %21, align 8
  %107 = load ptr, ptr %19, align 8
  %108 = getelementptr inbounds nuw %struct.coap_common_dissect, ptr %107, i32 0, i32 0
  %109 = getelementptr inbounds nuw %struct.anon, ptr %108, i32 0, i32 3
  %110 = load i32, ptr %109, align 4
  %111 = load ptr, ptr %11, align 8
  %112 = load i32, ptr %15, align 4
  %113 = load i32, ptr %25, align 4
  %114 = call ptr @proto_tree_add_uint(ptr noundef %106, i32 noundef %110, ptr noundef %111, i32 noundef %112, i32 noundef 0, i32 noundef %113)
  store ptr %114, ptr %23, align 8
  %115 = load ptr, ptr %23, align 8
  call void @proto_item_set_generated(ptr noundef %115)
  %116 = load ptr, ptr %11, align 8
  %117 = load i32, ptr %15, align 4
  %118 = load i32, ptr %25, align 4
  %119 = call ptr @tvb_new_subset_length(ptr noundef %116, i32 noundef %117, i32 noundef %118)
  store ptr %119, ptr %24, align 8
  %120 = getelementptr inbounds nuw %struct.media_content_info_t, ptr %27, i32 0, i32 0
  store i32 3, ptr %120, align 8
  %121 = load ptr, ptr %18, align 8
  %122 = getelementptr inbounds nuw %struct.coap_info, ptr %121, i32 0, i32 5
  %123 = load ptr, ptr %122, align 8
  %124 = call ptr @wmem_strbuf_get_str(ptr noundef %123)
  %125 = getelementptr inbounds nuw %struct.media_content_info_t, ptr %27, i32 0, i32 1
  store ptr %124, ptr %125, align 8
  %126 = load ptr, ptr %18, align 8
  %127 = getelementptr inbounds nuw %struct.coap_info, ptr %126, i32 0, i32 7
  %128 = load i8, ptr %127, align 8, !range !8, !noundef !9
  %129 = trunc i8 %128 to i1
  br i1 %129, label %130, label %137

130:                                              ; preds = %67
  %131 = load ptr, ptr @coap_tmf_media_type_dissector_table, align 8
  %132 = load ptr, ptr %26, align 8
  %133 = load ptr, ptr %24, align 8
  %134 = load ptr, ptr %12, align 8
  %135 = load ptr, ptr %14, align 8
  %136 = call i32 @dissector_try_string_with_data(ptr noundef %131, ptr noundef %132, ptr noundef %133, ptr noundef %134, ptr noundef %135, i1 noundef zeroext true, ptr noundef %27)
  store i32 %136, ptr %29, align 4
  br label %137

137:                                              ; preds = %130, %67
  %138 = load i32, ptr %29, align 4
  %139 = icmp eq i32 %138, 0
  br i1 %139, label %140, label %147

140:                                              ; preds = %137
  %141 = load ptr, ptr @media_type_dissector_table, align 8
  %142 = load ptr, ptr %26, align 8
  %143 = load ptr, ptr %24, align 8
  %144 = load ptr, ptr %12, align 8
  %145 = load ptr, ptr %14, align 8
  %146 = call i32 @dissector_try_string_with_data(ptr noundef %141, ptr noundef %142, ptr noundef %143, ptr noundef %144, ptr noundef %145, i1 noundef zeroext true, ptr noundef %27)
  br label %147

147:                                              ; preds = %140, %137
  %148 = load ptr, ptr %18, align 8
  %149 = getelementptr inbounds nuw %struct.coap_info, ptr %148, i32 0, i32 8
  %150 = load i8, ptr %149, align 1, !range !8, !noundef !9
  %151 = trunc i8 %150 to i1
  br i1 %151, label %152, label %165

152:                                              ; preds = %147
  %153 = load i8, ptr %20, align 1, !range !8, !noundef !9
  %154 = trunc i8 %153 to i1
  br i1 %154, label %165, label %155

155:                                              ; preds = %152
  %156 = load ptr, ptr %22, align 8
  call void (ptr, ptr, ...) @proto_item_set_text(ptr noundef %156, ptr noundef @.str.9)
  %157 = load ptr, ptr @oscore_handle, align 8
  %158 = load ptr, ptr %24, align 8
  %159 = load ptr, ptr %12, align 8
  %160 = load ptr, ptr %14, align 8
  %161 = load ptr, ptr %18, align 8
  %162 = getelementptr inbounds nuw %struct.coap_info, ptr %161, i32 0, i32 9
  %163 = load ptr, ptr %162, align 8
  %164 = call i32 @call_dissector_with_data(ptr noundef %157, ptr noundef %158, ptr noundef %159, ptr noundef %160, ptr noundef %163)
  br label %165

165:                                              ; preds = %155, %152, %147
  call void @llvm.lifetime.end.p0(i64 4, ptr %29) #11
  call void @llvm.lifetime.end.p0(i64 80, ptr %28) #11
  call void @llvm.lifetime.end.p0(i64 32, ptr %27) #11
  call void @llvm.lifetime.end.p0(i64 8, ptr %26) #11
  call void @llvm.lifetime.end.p0(i64 4, ptr %25) #11
  call void @llvm.lifetime.end.p0(i64 8, ptr %24) #11
  call void @llvm.lifetime.end.p0(i64 8, ptr %23) #11
  call void @llvm.lifetime.end.p0(i64 8, ptr %22) #11
  call void @llvm.lifetime.end.p0(i64 8, ptr %21) #11
  ret void
}