; Function Attrs: null_pointer_is_valid sspstrong uwtable
define hidden void @dissect_coap_payload(ptr noundef %0, ptr noundef %1, ptr noundef %2, ptr noundef %3, i32 noundef %4, i32 noundef %5, i8 noundef zeroext %6, ptr noundef captures(none) %7, ptr noundef readonly captures(none) %8, i1 noundef zeroext %9) local_unnamed_addr #1 {
  %11 = alloca %struct.media_content_info_t, align 8
  %12 = alloca [80 x i8], align 16
  %13 = sub i32 %5, %4
  call void @llvm.lifetime.start.p0(i64 32, ptr nonnull %11) #11
  call void @llvm.memset.p0.i64(ptr noundef nonnull align 8 dereferenceable(32) %11, i8 0, i64 32, i1 false)
  call void @llvm.lifetime.start.p0(i64 80, ptr nonnull %12) #11
  %14 = getelementptr inbounds nuw i8, ptr %7, i64 8
  %15 = load i32, ptr %14, align 8
  switch i32 %15, label %20 [
    i32 -1, label %16
    i32 0, label %._crit_edge
  ]

._crit_edge:                                      ; preds = %10
  %.pre = load ptr, ptr %7, align 8
  br label %22

16:                                               ; preds = %10
  %17 = and i8 %6, -2
  %or.cond = icmp eq i8 %17, 4
  br i1 %or.cond, label %18, label %19

18:                                               ; preds = %16
  store ptr @.str.3, ptr %7, align 8
  br label %22

19:                                               ; preds = %16
  store ptr @.str.5, ptr %7, align 8
  br label %22

20:                                               ; preds = %10
  %21 = load ptr, ptr %7, align 8
  br label %22

22:                                               ; preds = %._crit_edge, %20, %18, %19
  %23 = phi ptr [ @.str.3, %18 ], [ @.str.5, %19 ], [ %21, %20 ], [ %.pre, %._crit_edge ]
  %.053 = phi ptr [ @.str.4, %18 ], [ @.str.5, %19 ], [ %21, %20 ], [ @.str.4, %._crit_edge ]
  %24 = icmp eq i32 %15, -1
  %25 = select i1 %24, ptr @.str.7, ptr @.str.8
  %26 = call i32 (ptr, i64, i32, i64, ptr, ...) @__snprintf_chk(ptr noundef nonnull %12, i64 noundef 80, i32 noundef 2, i64 noundef 80, ptr noundef nonnull @.str.6, ptr noundef %23, ptr noundef nonnull %25, i32 noundef %13)
  %27 = getelementptr inbounds nuw i8, ptr %8, i64 4
  %28 = load i32, ptr %27, align 4
  %29 = call ptr @proto_tree_add_string(ptr noundef %2, i32 noundef %28, ptr noundef %0, i32 noundef %4, i32 noundef %13, ptr noundef nonnull %12)
  %30 = getelementptr inbounds nuw i8, ptr %8, i64 184
  %31 = load i32, ptr %30, align 4
  %32 = call ptr @proto_item_add_subtree(ptr noundef %29, i32 noundef %31)
  %33 = getelementptr inbounds nuw i8, ptr %8, i64 8
  %34 = load i32, ptr %33, align 4
  %35 = load ptr, ptr %7, align 8
  %36 = call ptr @proto_tree_add_string(ptr noundef %32, i32 noundef %34, ptr noundef %0, i32 noundef %4, i32 noundef 0, ptr noundef %35)
  %37 = getelementptr inbounds nuw i8, ptr %8, i64 12
  %38 = load i32, ptr %37, align 4
  %39 = call ptr @proto_tree_add_uint(ptr noundef %32, i32 noundef %38, ptr noundef %0, i32 noundef %4, i32 noundef 0, i32 noundef %13)
  %.not.i = icmp eq ptr %39, null
  br i1 %.not.i, label %proto_item_set_generated.exit, label %40

40:                                               ; preds = %22
  %41 = getelementptr inbounds nuw i8, ptr %39, i64 40
  %42 = load ptr, ptr %41, align 8
  %.not5.i = icmp eq ptr %42, null
  br i1 %.not5.i, label %proto_item_set_generated.exit, label %43

43:                                               ; preds = %40
  %44 = getelementptr inbounds nuw i8, ptr %42, i64 28
  %45 = load i32, ptr %44, align 4
  %46 = or i32 %45, 2
  store i32 %46, ptr %44, align 4
  br label %proto_item_set_generated.exit

proto_item_set_generated.exit:                    ; preds = %22, %40, %43
  %47 = call ptr @tvb_new_subset_length(ptr noundef %0, i32 noundef %4, i32 noundef %13)
  store i32 3, ptr %11, align 8
  %48 = getelementptr inbounds nuw i8, ptr %7, i64 24
  %49 = load ptr, ptr %48, align 8
  %50 = call ptr @wmem_strbuf_get_str(ptr noundef %49)
  %51 = getelementptr inbounds nuw i8, ptr %11, i64 8
  store ptr %50, ptr %51, align 8
  %52 = getelementptr inbounds nuw i8, ptr %7, i64 40
  %53 = load i8, ptr %52, align 8, !range !8, !noundef !9
  %54 = trunc nuw i8 %53 to i1
  br i1 %54, label %55, label %.critedge

55:                                               ; preds = %proto_item_set_generated.exit
  %56 = load ptr, ptr @coap_tmf_media_type_dissector_table, align 8
  %57 = call i32 @dissector_try_string_with_data(ptr noundef %56, ptr noundef %.053, ptr noundef %47, ptr noundef %1, ptr noundef %3, i1 noundef zeroext true, ptr noundef nonnull %11)
  %58 = icmp eq i32 %57, 0
  br i1 %58, label %.critedge, label %61

.critedge:                                        ; preds = %proto_item_set_generated.exit, %55
  %59 = load ptr, ptr @media_type_dissector_table, align 8
  %60 = call i32 @dissector_try_string_with_data(ptr noundef %59, ptr noundef %.053, ptr noundef %47, ptr noundef %1, ptr noundef %3, i1 noundef zeroext true, ptr noundef nonnull %11)
  br label %61

61:                                               ; preds = %.critedge, %55
  %62 = getelementptr inbounds nuw i8, ptr %7, i64 41
  %63 = load i8, ptr %62, align 1, !range !8, !noundef !9
  %64 = trunc nuw i8 %63 to i1
  %.not = xor i1 %64, true
  %brmerge = or i1 %9, %.not
  br i1 %brmerge, label %70, label %65

65:                                               ; preds = %61
  call void (ptr, ptr, ...) @proto_item_set_text(ptr noundef %29, ptr noundef nonnull @.str.9)
  %66 = load ptr, ptr @oscore_handle, align 8
  %67 = getelementptr inbounds nuw i8, ptr %7, i64 48
  %68 = load ptr, ptr %67, align 8
  %69 = call i32 @call_dissector_with_data(ptr noundef %66, ptr noundef %47, ptr noundef %1, ptr noundef %3, ptr noundef %68)
  br label %70

70:                                               ; preds = %61, %65
  call void @llvm.lifetime.end.p0(i64 80, ptr nonnull %12) #11
  call void @llvm.lifetime.end.p0(i64 32, ptr nonnull %11) #11
  ret void
}